(dp1
V 
I2
sV(
I73
sV,
I51
sV0
I72
sV4
I28
sV8
I32
sV<
I89
sV@
I88
sVD
I10
sVH
I47
sVL
I65
sVP
I33
sVT
I5
sVX
I0
sV\u005c
I42
sVd
I9
sVh
I17
sVl
I50
sVp
I55
sVt
I14
sVx
I80
sV|
I35
sV#
I54
sV'
I70
sV+
I61
sV/
I29
sV3
I45
sV7
I39
sV?
I85
sVC
I58
sVG
I43
sVK
I30
sVO
I77
sVS
I25
sVW
I66
sV[
I40
sV_
I64
sVc
I22
sVg
I16
sVk
I56
sVo
I13
sVs
I21
sVw
I49
sV{
I90
sV\u000a
I4
sV"
I36
sV&
I86
sV*
I87
sV.
I59
sV2
I37
sV6
I31
sV:
I1
sV>
I62
sVB
I38
sVF
I27
sVJ
I68
sVN
I12
sVR
I53
sVV
I82
sVZ
I92
sV^
I44
sVb
I23
sVf
I34
sVj
I83
sVn
I8
sVr
I48
sVv
I52
sVz
I71
sV~
I81
sV!
I57
sV%
I11
sV)
I74
sV-
I69
sV1
I3
sV5
I60
sV9
I63
sV=
I41
sVA
I6
sVE
I26
sVI
I67
sVM
I19
sVQ
I76
sVU
I84
sVY
I78
sV]
I79
sVa
I7
sVe
I24
sVi
I15
sVm
I18
sVq
I75
sVu
I20
sVy
I46
sV}
I91
s.